
a.out:     file format elf64-littleaarch64


Disassembly of section .plt:

00000000004005a0 <printf@plt-0x20>:
  4005a0:	a9bf7bf0 	stp	x16, x30, [sp,#-16]!
  4005a4:	90000090 	adrp	x16, 410000 <main+0xf8c8>
  4005a8:	f947da11 	ldr	x17, [x16,#4016]
  4005ac:	913ec210 	add	x16, x16, #0xfb0
  4005b0:	d61f0220 	br	x17
  4005b4:	d503201f 	nop
  4005b8:	d503201f 	nop
  4005bc:	d503201f 	nop

00000000004005c0 <printf@plt>:
  4005c0:	90000090 	adrp	x16, 410000 <main+0xf8c8>
  4005c4:	f947de11 	ldr	x17, [x16,#4024]
  4005c8:	913ee210 	add	x16, x16, #0xfb8
  4005cc:	d61f0220 	br	x17

00000000004005d0 <puts@plt>:
  4005d0:	90000090 	adrp	x16, 410000 <main+0xf8c8>
  4005d4:	f947e211 	ldr	x17, [x16,#4032]
  4005d8:	913f0210 	add	x16, x16, #0xfc0
  4005dc:	d61f0220 	br	x17

00000000004005e0 <__libc_init@plt>:
  4005e0:	90000090 	adrp	x16, 410000 <main+0xf8c8>
  4005e4:	f947e611 	ldr	x17, [x16,#4040]
  4005e8:	913f2210 	add	x16, x16, #0xfc8
  4005ec:	d61f0220 	br	x17

00000000004005f0 <__cxa_atexit@plt>:
  4005f0:	90000090 	adrp	x16, 410000 <main+0xf8c8>
  4005f4:	f947ea11 	ldr	x17, [x16,#4048]
  4005f8:	913f4210 	add	x16, x16, #0xfd0
  4005fc:	d61f0220 	br	x17

Disassembly of section .text:

0000000000400600 <_start>:
  400600:	8b3f63e0 	add	x0, sp, xzr
  400604:	14000007 	b	400620 <do_arm64_start>

0000000000400608 <__atexit_handler_wrapper>:
  400608:	a9bf7bfd 	stp	x29, x30, [sp,#-16]!
  40060c:	910003fd 	mov	x29, sp
  400610:	b4000040 	cbz	x0, 400618 <__atexit_handler_wrapper+0x10>
  400614:	d63f0000 	blr	x0
  400618:	a8c17bfd 	ldp	x29, x30, [sp],#16
  40061c:	d65f03c0 	ret

0000000000400620 <do_arm64_start>:
  400620:	90000082 	adrp	x2, 410000 <main+0xf8c8>
  400624:	90000086 	adrp	x6, 410000 <main+0xf8c8>
  400628:	90000085 	adrp	x5, 410000 <main+0xf8c8>
  40062c:	90000084 	adrp	x4, 410000 <main+0xf8c8>
  400630:	a9bd7bfd 	stp	x29, x30, [sp,#-48]!
  400634:	d2800001 	mov	x1, #0x0                   	// #0
  400638:	910003fd 	mov	x29, sp
  40063c:	f947f4c6 	ldr	x6, [x6,#4072]
  400640:	910063a3 	add	x3, x29, #0x18
  400644:	f947fca5 	ldr	x5, [x5,#4088]
  400648:	f947f884 	ldr	x4, [x4,#4080]
  40064c:	f947f042 	ldr	x2, [x2,#4064]
  400650:	f9000fa6 	str	x6, [x29,#24]
  400654:	f90013a5 	str	x5, [x29,#32]
  400658:	f90017a4 	str	x4, [x29,#40]
  40065c:	97ffffe1 	bl	4005e0 <__libc_init@plt>

0000000000400660 <atexit>:
  400660:	aa0003e1 	mov	x1, x0
  400664:	b0000082 	adrp	x2, 411000 <__dso_handle>
  400668:	90000000 	adrp	x0, 400000 <note_android_ident-0x218>
  40066c:	91000042 	add	x2, x2, #0x0
  400670:	91182000 	add	x0, x0, #0x608
  400674:	17ffffdf 	b	4005f0 <__cxa_atexit@plt>

0000000000400678 <testb>:
  400678:	d10083ff 	sub	sp, sp, #0x20
  40067c:	b9000fe0 	str	w0, [sp,#12]
  400680:	b9400fe0 	ldr	w0, [sp,#12]
  400684:	51000400 	sub	w0, w0, #0x1
  400688:	b9001fe0 	str	w0, [sp,#28]
  40068c:	b9401fe0 	ldr	w0, [sp,#28]
  400690:	910083ff 	add	sp, sp, #0x20
  400694:	d65f03c0 	ret

0000000000400698 <testa>:
  400698:	a9bc7bfd 	stp	x29, x30, [sp,#-64]!
  40069c:	910003fd 	mov	x29, sp
  4006a0:	b9001fa0 	str	w0, [x29,#28]
  4006a4:	b9001ba1 	str	w1, [x29,#24]
  4006a8:	b9401fa1 	ldr	w1, [x29,#28]
  4006ac:	b9401ba0 	ldr	w0, [x29,#24]
  4006b0:	0b000020 	add	w0, w1, w0
  4006b4:	b9003fa0 	str	w0, [x29,#60]
  4006b8:	910083a0 	add	x0, x29, #0x20
  4006bc:	52800021 	mov	w1, #0x1                   	// #1
  4006c0:	b9000001 	str	w1, [x0]
  4006c4:	910083a0 	add	x0, x29, #0x20
  4006c8:	52800041 	mov	w1, #0x2                   	// #2
  4006cc:	b9000401 	str	w1, [x0,#4]
  4006d0:	910083a0 	add	x0, x29, #0x20
  4006d4:	52800061 	mov	w1, #0x3                   	// #3
  4006d8:	b9000801 	str	w1, [x0,#8]
  4006dc:	910083a0 	add	x0, x29, #0x20
  4006e0:	52800081 	mov	w1, #0x4                   	// #4
  4006e4:	b9000c01 	str	w1, [x0,#12]
  4006e8:	910083a0 	add	x0, x29, #0x20
  4006ec:	528000a1 	mov	w1, #0x5                   	// #5
  4006f0:	b9001001 	str	w1, [x0,#16]
  4006f4:	b9403fa0 	ldr	w0, [x29,#60]
  4006f8:	97ffffe0 	bl	400678 <testb>
  4006fc:	b9003ba0 	str	w0, [x29,#56]
  400700:	b9403ba0 	ldr	w0, [x29,#56]
  400704:	a8c47bfd 	ldp	x29, x30, [sp],#64
  400708:	d65f03c0 	ret

000000000040070c <testc>:
  40070c:	d10043ff 	sub	sp, sp, #0x10
  400710:	f90007e0 	str	x0, [sp,#8]
  400714:	f94007e0 	ldr	x0, [sp,#8]
  400718:	52800021 	mov	w1, #0x1                   	// #1
  40071c:	b9000001 	str	w1, [x0]
  400720:	f94007e0 	ldr	x0, [sp,#8]
  400724:	91001000 	add	x0, x0, #0x4
  400728:	52800041 	mov	w1, #0x2                   	// #2
  40072c:	b9000001 	str	w1, [x0]
  400730:	910043ff 	add	sp, sp, #0x10
  400734:	d65f03c0 	ret

0000000000400738 <main>:
  400738:	a9bd7bfd 	stp	x29, x30, [sp,#-48]!
  40073c:	910003fd 	mov	x29, sp
  400740:	90000000 	adrp	x0, 400000 <note_android_ident-0x218>
  400744:	911f0000 	add	x0, x0, #0x7c0
  400748:	97ffffa2 	bl	4005d0 <puts@plt>
  40074c:	52800020 	mov	w0, #0x1                   	// #1
  400750:	52800061 	mov	w1, #0x3                   	// #3
  400754:	97ffffd1 	bl	400698 <testa>
  400758:	b9002fa0 	str	w0, [x29,#44]
  40075c:	90000000 	adrp	x0, 400000 <note_android_ident-0x218>
  400760:	911f2000 	add	x0, x0, #0x7c8
  400764:	b9402fa1 	ldr	w1, [x29,#44]
  400768:	97ffff96 	bl	4005c0 <printf@plt>
  40076c:	910063a0 	add	x0, x29, #0x18
  400770:	52800021 	mov	w1, #0x1                   	// #1
  400774:	b9000001 	str	w1, [x0]
  400778:	910063a0 	add	x0, x29, #0x18
  40077c:	52800041 	mov	w1, #0x2                   	// #2
  400780:	b9000401 	str	w1, [x0,#4]
  400784:	910063a0 	add	x0, x29, #0x18
  400788:	52800061 	mov	w1, #0x3                   	// #3
  40078c:	b9000801 	str	w1, [x0,#8]
  400790:	910063a0 	add	x0, x29, #0x18
  400794:	52800081 	mov	w1, #0x4                   	// #4
  400798:	b9000c01 	str	w1, [x0,#12]
  40079c:	910063a0 	add	x0, x29, #0x18
  4007a0:	528000a1 	mov	w1, #0x5                   	// #5
  4007a4:	b9001001 	str	w1, [x0,#16]
  4007a8:	910063a0 	add	x0, x29, #0x18
  4007ac:	97ffffd8 	bl	40070c <testc>
  4007b0:	52800000 	mov	w0, #0x0                   	// #0
  4007b4:	a8c37bfd 	ldp	x29, x30, [sp],#48
  4007b8:	d65f03c0 	ret
